target datalayout = "e-m:e-p270:32:32-p271:32:32-p272:64:64-i64:64-i128:128-f80:128-n8:16:32:64-S128"
target triple = "x86_64-pc-linux-gnu"

%struct.SRP_user_pwd_st = type { ptr, ptr, ptr, ptr, ptr, ptr }

@.str = private unnamed_addr constant [32 x i8] c"../openssl/crypto/srp/srp_vfy.c\00", align 1

; Function Attrs: nounwind uwtable
define void @SRP_user_pwd_free(ptr noundef %0) #0 {
  %2 = alloca ptr, align 8
  store ptr %0, ptr %2, align 8, !tbaa !3
  %3 = load ptr, ptr %2, align 8, !tbaa !3
  %4 = icmp eq ptr %3, null
  br i1 %4, label %5, label %6

5:                                                ; preds = %1
  br label %20

6:                                                ; preds = %1
  %7 = load ptr, ptr %2, align 8, !tbaa !3
  %8 = getelementptr inbounds nuw %struct.SRP_user_pwd_st, ptr %7, i32 0, i32 1
  %9 = load ptr, ptr %8, align 8, !tbaa !8
  call void @BN_free(ptr noundef %9)
  %10 = load ptr, ptr %2, align 8, !tbaa !3
  %11 = getelementptr inbounds nuw %struct.SRP_user_pwd_st, ptr %10, i32 0, i32 2
  %12 = load ptr, ptr %11, align 8, !tbaa !12
  call void @BN_clear_free(ptr noundef %12)
  %13 = load ptr, ptr %2, align 8, !tbaa !3
  %14 = getelementptr inbounds nuw %struct.SRP_user_pwd_st, ptr %13, i32 0, i32 0
  %15 = load ptr, ptr %14, align 8, !tbaa !13
  call void @CRYPTO_free(ptr noundef %15, ptr noundef @.str, i32 noundef 185)
  %16 = load ptr, ptr %2, align 8, !tbaa !3
  %17 = getelementptr inbounds nuw %struct.SRP_user_pwd_st, ptr %16, i32 0, i32 5
  %18 = load ptr, ptr %17, align 8, !tbaa !14
  call void @CRYPTO_free(ptr noundef %18, ptr noundef @.str, i32 noundef 186)
  %19 = load ptr, ptr %2, align 8, !tbaa !3
  call void @CRYPTO_free(ptr noundef %19, ptr noundef @.str, i32 noundef 187)
  br label %20

20:                                               ; preds = %6, %5
  ret void
}